target datalayout = "e-m:e-p270:32:32-p271:32:32-p272:64:64-i64:64-i128:128-f80:128-n8:16:32:64-S128"
target triple = "x86_64-pc-linux-gnu"

%class.anon.0 = type { i8 }

@_ZN12_GLOBAL__N_19c_unknownE = internal constant [8 x i8] c"unknown\00", align 1
@.str = private unnamed_addr constant [9 x i8] c"len >= 8\00", align 1
@.str.1 = private unnamed_addr constant [26 x i8] c"Input buffer is too short\00", align 1
@.str.2 = private unnamed_addr constant [125 x i8] c"generated/home/dtcxzyw/WorkSpace/Projects/compilers/llvm-opt-benchmark/bench/gromacs/gromacs/src/gromacs/utility/sysinfo.cpp\00", align 1
@"__PRETTY_FUNCTION__._ZZ15gmx_getusernamePcmENK3$_0clEv" = private unnamed_addr constant [76 x i8] c"auto gmx_getusername(char *, size_t)::(anonymous class)::operator()() const\00", align 1

; Function Attrs: inlinehint mustprogress uwtable
define internal void @"_ZZ15gmx_getusernamePcmENK3$_0clEv"(ptr noundef nonnull align 1 dereferenceable(1) %0) #2 align 2 {
  %2 = alloca ptr, align 8
  store ptr %0, ptr %2, align 8, !tbaa !12
  call void @_ZN3gmx8internal13assertHandlerEPKcS2_S2_S2_i(ptr noundef @.str, ptr noundef @.str.1, ptr noundef @"__PRETTY_FUNCTION__._ZZ15gmx_getusernamePcmENK3$_0clEv", ptr noundef @.str.2, i32 noundef 117) #14
  unreachable
}

; Function Attrs: mustprogress uwtable
define noundef i32 @_Z15gmx_getusernamePcm(ptr noundef %0, i64 noundef %1) #0 {
  %3 = alloca i32, align 4
  %4 = alloca ptr, align 8
  %5 = alloca i64, align 8
  %6 = alloca %class.anon.0, align 1
  store ptr %0, ptr %4, align 8, !tbaa !4
  store i64 %1, ptr %5, align 8, !tbaa !9
  %7 = load i64, ptr %5, align 8, !tbaa !9
  %8 = icmp uge i64 %7, 8
  call void @llvm.lifetime.start.p0(i64 1, ptr %6) #13
  br i1 %8, label %9, label %10

9:                                                ; preds = %2
  br label %11

10:                                               ; preds = %2
  call void @"_ZZ15gmx_getusernamePcmENK3$_0clEv"(ptr noundef nonnull align 1 dereferenceable(1) %6)
  br label %11

11:                                               ; preds = %10, %9
  call void @llvm.lifetime.end.p0(i64 1, ptr %6) #13
  %12 = load ptr, ptr %4, align 8, !tbaa !4
  %13 = load i64, ptr %5, align 8, !tbaa !9
  %14 = call i32 @getlogin_r(ptr noundef %12, i64 noundef %13)
  %15 = icmp ne i32 %14, 0
  br i1 %15, label %21, label %16

16:                                               ; preds = %11
  %17 = load ptr, ptr %4, align 8, !tbaa !4
  %18 = load i64, ptr %5, align 8, !tbaa !9
  %19 = sub i64 %18, 1
  %20 = getelementptr inbounds nuw i8, ptr %17, i64 %19
  store i8 0, ptr %20, align 1, !tbaa !11
  store i32 0, ptr %3, align 4
  br label %24

21:                                               ; preds = %11
  %22 = load ptr, ptr %4, align 8, !tbaa !4
  %23 = call ptr @strcpy(ptr noundef %22, ptr noundef @_ZN12_GLOBAL__N_19c_unknownE) #13
  store i32 -1, ptr %3, align 4
  br label %24

24:                                               ; preds = %21, %16
  %25 = load i32, ptr %3, align 4
  ret i32 %25
}