; Function Attrs: mustprogress uwtable
define noundef range(i32 -1, 1) i32 @_Z15gmx_getusernamePcm(ptr noundef captures(none) %0, i64 noundef %1) local_unnamed_addr #0 {
  %3 = icmp ugt i64 %1, 7
  br i1 %3, label %5, label %4

4:                                                ; preds = %2
  tail call void @_ZN3gmx8internal13assertHandlerEPKcS2_S2_S2_i(ptr noundef nonnull @.str, ptr noundef nonnull @.str.1, ptr noundef nonnull @"__PRETTY_FUNCTION__._ZZ15gmx_getusernamePcmENK3$_0clEv", ptr noundef nonnull @.str.2, i32 noundef 117) #9
  unreachable

5:                                                ; preds = %2
  %6 = tail call i32 @getlogin_r(ptr noundef %0, i64 noundef %1)
  %.not = icmp eq i32 %6, 0
  br i1 %.not, label %7, label %10

7:                                                ; preds = %5
  %8 = getelementptr i8, ptr %0, i64 %1
  %9 = getelementptr i8, ptr %8, i64 -1
  store i8 0, ptr %9, align 1, !tbaa !4
  br label %11

10:                                               ; preds = %5
  store i64 31093567915781749, ptr %0, align 1
  br label %11

11:                                               ; preds = %10, %7
  %.0 = phi i32 [ -1, %10 ], [ 0, %7 ]
  ret i32 %.0
}